; Function Attrs: nounwind uwtable
define internal ptr @poll_init(ptr noundef %0) #0 {
  %2 = tail call ptr @event_mm_calloc_(i64 noundef 1, i64 noundef 32) #6
  %.not = icmp eq ptr %2, null
  br i1 %.not, label %11, label %3

3:                                                ; preds = %1
  %4 = tail call i32 @sigfd_init_(ptr noundef %0) #6
  %5 = icmp slt i32 %4, 0
  br i1 %5, label %6, label %8

6:                                                ; preds = %3
  %7 = tail call i32 @evsig_init_(ptr noundef %0) #6
  br label %8

8:                                                ; preds = %6, %3
  %9 = getelementptr inbounds nuw i8, ptr %0, i64 1160
  %10 = tail call i32 @evutil_weakrand_seed_(ptr noundef nonnull %9, i32 noundef 0) #6
  br label %11

11:                                               ; preds = %1, %8
  ret ptr %2
}